; Function Attrs: mustprogress uwtable
define hidden void @_ZN7Imf_3_214DeepImageLevel21initializeSampleListsEv(ptr noundef nonnull readonly align 8 dereferenceable(192) %this) local_unnamed_addr #3 align 2 {
entry:
  %_M_left.i.i = getelementptr inbounds i8, ptr %this, i64 64
  %0 = load ptr, ptr %_M_left.i.i, align 8
  %add.ptr.i.i = getelementptr inbounds i8, ptr %this, i64 48
  %cmp.i.not3 = icmp eq ptr %0, %add.ptr.i.i
  br i1 %cmp.i.not3, label %for.end, label %for.body

for.body:                                         ; preds = %entry, %for.body
  %j.sroa.0.04 = phi ptr [ %call.i, %for.body ], [ %0, %entry ]
  %second = getelementptr inbounds i8, ptr %j.sroa.0.04, i64 64
  %1 = load ptr, ptr %second, align 8
  %vtable = load ptr, ptr %1, align 8
  %vfn = getelementptr inbounds i8, ptr %vtable, i64 64
  %2 = load ptr, ptr %vfn, align 8
  tail call void %2(ptr noundef nonnull align 8 dereferenceable(48) %1)
  %call.i = tail call noundef ptr @_ZSt18_Rb_tree_incrementPSt18_Rb_tree_node_base(ptr noundef %j.sroa.0.04) #15
  %cmp.i.not = icmp eq ptr %call.i, %add.ptr.i.i
  br i1 %cmp.i.not, label %for.end, label %for.body, !llvm.loop !9

for.end:                                          ; preds = %for.body, %entry
  ret void
}